target datalayout = "e-m:e-p270:32:32-p271:32:32-p272:64:64-i64:64-i128:128-f80:128-n8:16:32:64-S128"
target triple = "x86_64-pc-linux-gnu"

%struct.H5HF_hdr_t = type { %struct.H5C_cache_entry_t, i32, i32, i8, i8, i8, i8, %struct.H5HF_dtable_t, i64, i64, i32, i64, i64, %struct.H5O_pline_t, i64, i32, i64, i64, i64, i64, i64, i64, i64, i64, i64, i64, i64, i32, ptr, i64, i8, i8, i8, ptr, i32, ptr, %struct.H5HF_block_iter_t, ptr, i64, i8, i8, i64, i8, i8, i8, i8 }
%struct.H5C_cache_entry_t = type { ptr, i64, i64, ptr, i8, ptr, i8, i8, i8, i8, i32, i8, i8, i8, i8, i8, i32, ptr, i32, i32, i32, i32, i32, i8, i8, ptr, ptr, ptr, ptr, ptr, ptr, i8, i32, i8, i64, ptr, i64, i64, i32, i8, i32, i32, i8, ptr, ptr, ptr }
%struct.H5HF_dtable_t = type { %struct.H5HF_dtable_cparam_t, i64, i32, i32, i32, i32, i32, i32, i32, i64, ptr, ptr, ptr, ptr }
%struct.H5HF_dtable_cparam_t = type { i32, i64, i64, i32, i32 }
%struct.H5O_pline_t = type { %struct.H5O_shared_t, i32, i64, i64, ptr }
%struct.H5O_shared_t = type { i32, ptr, i32, %union.anon }
%union.anon = type { %struct.H5O_mesg_loc_t }
%struct.H5O_mesg_loc_t = type { i32, i64 }
%struct.H5HF_block_iter_t = type { i8, ptr }

; Function Attrs: nounwind uwtable
define i32 @H5HF__tiny_get_obj_len(ptr noundef %0, ptr noundef %1, ptr noundef %2) #0 {
  %4 = alloca ptr, align 8
  %5 = alloca ptr, align 8
  %6 = alloca ptr, align 8
  %7 = alloca i64, align 8
  store ptr %0, ptr %4, align 8
  store ptr %1, ptr %5, align 8
  store ptr %2, ptr %6, align 8
  %8 = load ptr, ptr %4, align 8
  %9 = getelementptr inbounds %struct.H5HF_hdr_t, ptr %8, i32 0, i32 42
  %10 = load i8, ptr %9, align 8
  %11 = trunc i8 %10 to i1
  br i1 %11, label %18, label %12

12:                                               ; preds = %3
  %13 = load ptr, ptr %5, align 8
  %14 = load i8, ptr %13, align 1
  %15 = zext i8 %14 to i32
  %16 = and i32 %15, 15
  %17 = sext i32 %16 to i64
  store i64 %17, ptr %7, align 8
  br label %30

18:                                               ; preds = %3
  %19 = load ptr, ptr %5, align 8
  %20 = getelementptr inbounds i8, ptr %19, i64 1
  %21 = load i8, ptr %20, align 1
  %22 = zext i8 %21 to i64
  %23 = load ptr, ptr %5, align 8
  %24 = load i8, ptr %23, align 1
  %25 = zext i8 %24 to i32
  %26 = and i32 %25, 3840
  %27 = sext i32 %26 to i64
  %28 = shl i64 %27, 8
  %29 = or i64 %22, %28
  store i64 %29, ptr %7, align 8
  br label %30

30:                                               ; preds = %18, %12
  %31 = load i64, ptr %7, align 8
  %32 = add i64 %31, 1
  %33 = load ptr, ptr %6, align 8
  store i64 %32, ptr %33, align 8
  ret i32 0
}