; Function Attrs: mustprogress nofree norecurse nosync nounwind willreturn memory(argmem: readwrite) uwtable
define noundef i32 @H5HF__tiny_get_obj_len(ptr nocapture noundef readonly %0, ptr nocapture noundef readonly %1, ptr nocapture noundef writeonly %2) local_unnamed_addr #0 {
  %4 = getelementptr inbounds i8, ptr %0, i64 696
  %5 = load i8, ptr %4, align 8
  %6 = trunc i8 %5 to i1
  br i1 %6, label %10, label %7

7:                                                ; preds = %3
  %8 = load i8, ptr %1, align 1
  %9 = and i8 %8, 15
  br label %13

10:                                               ; preds = %3
  %11 = getelementptr inbounds i8, ptr %1, i64 1
  %12 = load i8, ptr %11, align 1
  br label %13

13:                                               ; preds = %10, %7
  %.0.in = phi i8 [ %12, %10 ], [ %9, %7 ]
  %.0 = zext i8 %.0.in to i64
  %14 = add nuw nsw i64 %.0, 1
  store i64 %14, ptr %2, align 8
  ret i32 0
}